; Function Attrs: mustprogress uwtable
define hidden void @_ZN2cv11bioinspired17BasicRetinaFilter25runFilter_LocalAdapdationERKSt8valarrayIfES5_RS3_(ptr noundef nonnull align 8 captures(none) dereferenceable(168) %0, ptr noundef nonnull readonly align 8 captures(none) dereferenceable(16) %1, ptr noundef nonnull readonly align 8 captures(none) dereferenceable(16) %2, ptr noundef nonnull readonly align 8 captures(none) dereferenceable(16) %3) local_unnamed_addr #3 align 2 personality ptr @__gxx_personality_v0 {
  %5 = alloca %"class.cv::Range", align 4
  %6 = alloca %"class.cv::bioinspired::BasicRetinaFilter::Parallel_localAdaptation", align 8
  %7 = getelementptr inbounds nuw i8, ptr %1, i64 8
  %8 = load ptr, ptr %7, align 8, !tbaa !10
  %9 = getelementptr inbounds nuw i8, ptr %2, i64 8
  %10 = load ptr, ptr %9, align 8, !tbaa !10
  %11 = getelementptr inbounds nuw i8, ptr %3, i64 8
  %12 = load ptr, ptr %11, align 8, !tbaa !10
  %13 = getelementptr inbounds nuw i8, ptr %0, i64 48
  %14 = load i64, ptr %13, align 8, !tbaa !19
  %15 = trunc i64 %14 to i32
  %.not.i = icmp eq i32 %15, 0
  br i1 %.not.i, label %._crit_edge.i, label %.lr.ph.i

._crit_edge.i:                                    ; preds = %.lr.ph.i, %4
  %.0.lcssa.i = phi float [ 0.000000e+00, %4 ], [ %34, %.lr.ph.i ]
  %16 = uitofp i32 %15 to float
  %17 = fdiv float %.0.lcssa.i, %16
  %18 = getelementptr inbounds nuw i8, ptr %0, i64 148
  store float 1.000000e+00, ptr %18, align 4, !tbaa !68
  %19 = getelementptr inbounds nuw i8, ptr %0, i64 136
  %20 = load float, ptr %19, align 8, !tbaa !69
  %21 = fmul float %17, %20
  %22 = getelementptr inbounds nuw i8, ptr %0, i64 152
  store float %21, ptr %22, align 8, !tbaa !70
  call void @llvm.lifetime.start.p0(i64 8, ptr nonnull %5) #19
  store i32 0, ptr %5, align 4, !tbaa !71
  %23 = getelementptr inbounds nuw i8, ptr %5, i64 4
  store i32 %15, ptr %23, align 4, !tbaa !73
  call void @llvm.lifetime.start.p0(i64 48, ptr nonnull %6) #19
  %24 = getelementptr inbounds nuw i8, ptr %0, i64 140
  %25 = load float, ptr %24, align 4, !tbaa !25
  store ptr getelementptr inbounds nuw inrange(-16, 24) (i8, ptr @_ZTVN2cv11bioinspired17BasicRetinaFilter24Parallel_localAdaptationE, i64 16), ptr %6, align 8, !tbaa !13
  %26 = getelementptr inbounds nuw i8, ptr %6, i64 8
  store ptr %10, ptr %26, align 8, !tbaa !74
  %27 = getelementptr inbounds nuw i8, ptr %6, i64 16
  store ptr %8, ptr %27, align 8, !tbaa !77
  %28 = getelementptr inbounds nuw i8, ptr %6, i64 24
  store ptr %12, ptr %28, align 8, !tbaa !78
  %29 = getelementptr inbounds nuw i8, ptr %6, i64 32
  store float 1.000000e+00, ptr %29, align 8, !tbaa !79
  %30 = getelementptr inbounds nuw i8, ptr %6, i64 36
  store float %21, ptr %30, align 4, !tbaa !80
  %31 = getelementptr inbounds nuw i8, ptr %6, i64 40
  store float %25, ptr %31, align 8, !tbaa !81
  invoke void @_ZN2cv13parallel_for_ERKNS_5RangeERKNS_16ParallelLoopBodyEd(ptr noundef nonnull align 4 dereferenceable(8) %5, ptr noundef nonnull align 8 dereferenceable(8) %6, double noundef -1.000000e+00)
          to label %_ZN2cv11bioinspired17BasicRetinaFilter25_localLuminanceAdaptationEPKfS3_Pfb.exit unwind label %36

.lr.ph.i:                                         ; preds = %4, %.lr.ph.i
  %.017.i = phi float [ %34, %.lr.ph.i ], [ 0.000000e+00, %4 ]
  %.01316.i = phi ptr [ %32, %.lr.ph.i ], [ %8, %4 ]
  %.01415.i = phi i32 [ %35, %.lr.ph.i ], [ 0, %4 ]
  %32 = getelementptr inbounds nuw i8, ptr %.01316.i, i64 4
  %33 = load float, ptr %.01316.i, align 4, !tbaa !11
  %34 = fadd float %.017.i, %33
  %35 = add nuw i32 %.01415.i, 1
  %exitcond.not.i = icmp eq i32 %35, %15
  br i1 %exitcond.not.i, label %._crit_edge.i, label %.lr.ph.i, !llvm.loop !82

36:                                               ; preds = %._crit_edge.i
  %37 = landingpad { ptr, i32 }
          cleanup
  call void @_ZN2cv16ParallelLoopBodyD2Ev(ptr noundef nonnull align 8 dereferenceable(44) %6) #19
  call void @llvm.lifetime.end.p0(i64 48, ptr nonnull %6) #19
  call void @llvm.lifetime.end.p0(i64 8, ptr nonnull %5) #19
  resume { ptr, i32 } %37

_ZN2cv11bioinspired17BasicRetinaFilter25_localLuminanceAdaptationEPKfS3_Pfb.exit: ; preds = %._crit_edge.i
  call void @_ZN2cv16ParallelLoopBodyD2Ev(ptr noundef nonnull align 8 dereferenceable(44) %6) #19
  call void @llvm.lifetime.end.p0(i64 48, ptr nonnull %6) #19
  call void @llvm.lifetime.end.p0(i64 8, ptr nonnull %5) #19
  ret void
}